target datalayout = "e-m:e-p270:32:32-p271:32:32-p272:64:64-i64:64-i128:128-f80:128-n8:16:32:64-S128"
target triple = "x86_64-unknown-linux-gnu"

%"struct.node::sea::SeaResource" = type { i32, %"class.std::basic_string_view", %"class.std::basic_string_view", %"class.std::optional" }
%"class.std::basic_string_view" = type { i64, ptr }
%"class.std::optional" = type { %"struct.std::_Optional_base" }
%"struct.std::_Optional_base" = type { %"struct.std::_Optional_payload" }
%"struct.std::_Optional_payload" = type { %"struct.std::_Optional_payload_base.base", [7 x i8] }
%"struct.std::_Optional_payload_base.base" = type <{ %"union.std::_Optional_payload_base<std::basic_string_view<char>>::_Storage", i8 }>
%"union.std::_Optional_payload_base<std::basic_string_view<char>>::_Storage" = type { %"class.std::basic_string_view" }
%"class.std::shared_ptr.3" = type { %"class.std::__shared_ptr.4" }
%"class.std::__shared_ptr.4" = type { ptr, %"class.std::__shared_count" }
%"class.std::__shared_count" = type { ptr }
%class.anon = type { i8 }
%"class.v8::ReturnValue" = type { ptr }
%"class.node::PerProcessOptions" = type { %"class.node::Options", %"class.std::shared_ptr", %"class.std::__cxx11::basic_string", %"class.std::__cxx11::basic_string", %"class.std::__cxx11::basic_string", i64, i8, i8, %"class.std::__cxx11::basic_string", i8, %"class.std::__cxx11::basic_string", %"class.std::vector", i8, i8, i8, i8, %"class.std::__cxx11::basic_string", %"class.std::__cxx11::basic_string", %"class.std::__cxx11::basic_string", %"class.std::__cxx11::basic_string", i64, i64, i8, i8, i8, i8, i8, i8, i8, i8, i8, %"class.std::__cxx11::basic_string", %"class.std::__cxx11::basic_string", %"class.std::__cxx11::basic_string", i8, %"class.std::vector" }
%"class.node::Options" = type { ptr }
%"class.std::shared_ptr" = type { %"class.std::__shared_ptr" }
%"class.std::__shared_ptr" = type { ptr, %"class.std::__shared_count" }
%"class.std::__cxx11::basic_string" = type { %"struct.std::__cxx11::basic_string<char>::_Alloc_hider", i64, %union.anon }
%"struct.std::__cxx11::basic_string<char>::_Alloc_hider" = type { ptr }
%union.anon = type { i64, [8 x i8] }
%"class.std::vector" = type { %"struct.std::_Vector_base" }
%"struct.std::_Vector_base" = type { %"struct.std::_Vector_base<std::__cxx11::basic_string<char>, std::allocator<std::__cxx11::basic_string<char>>>::_Vector_impl" }
%"struct.std::_Vector_base<std::__cxx11::basic_string<char>, std::allocator<std::__cxx11::basic_string<char>>>::_Vector_impl" = type { %"struct.std::_Vector_base<std::__cxx11::basic_string<char>, std::allocator<std::__cxx11::basic_string<char>>>::_Vector_impl_data" }
%"struct.std::_Vector_base<std::__cxx11::basic_string<char>, std::allocator<std::__cxx11::basic_string<char>>>::_Vector_impl_data" = type { ptr, ptr, ptr }

@_ZZN4node3sea28FindSingleExecutableResourceEvE12sea_resource = internal global %"struct.node::sea::SeaResource" zeroinitializer, align 8
@_ZGVZN4node3sea28FindSingleExecutableResourceEvE12sea_resource = internal global i64 0, align 8
@_ZN4node11per_process11cli_optionsE = external global %"class.std::shared_ptr.3", align 8
@_ZZL21postject_has_resourcevE8sentinel = internal global ptr @.str.56, align 8

; Function Attrs: mustprogress nounwind uwtable
define linkonce_odr dso_local noundef ptr @_ZNKSt12__shared_ptrIN4node17PerProcessOptionsELN9__gnu_cxx12_Lock_policyE2EE3getEv(ptr noundef nonnull align 8 dereferenceable(16) %this) #4 comdat align 2 {
entry:
  %this.addr = alloca ptr, align 8
  store ptr %this, ptr %this.addr, align 8
  %this1 = load ptr, ptr %this.addr, align 8
  %_M_ptr = getelementptr inbounds %"class.std::__shared_ptr.4", ptr %this1, i32 0, i32 0
  %0 = load ptr, ptr %_M_ptr, align 8
  ret ptr %0
}

; Function Attrs: mustprogress nounwind uwtable
define internal noundef zeroext i1 @_ZL21postject_has_resourcev() #4 {
entry:
  %0 = load ptr, ptr @_ZZL21postject_has_resourcevE8sentinel, align 8
  %arrayidx = getelementptr inbounds i8, ptr %0, i64 47
  %1 = load volatile i8, ptr %arrayidx, align 1
  %conv = sext i8 %1 to i32
  %cmp = icmp eq i32 %conv, 49
  ret i1 %cmp
}

; Function Attrs: mustprogress nounwind uwtable
define linkonce_odr dso_local noundef ptr @_ZNKSt19__shared_ptr_accessIN4node17PerProcessOptionsELN9__gnu_cxx12_Lock_policyE2ELb0ELb0EE6_M_getEv(ptr noundef nonnull align 1 dereferenceable(1) %this) #4 comdat align 2 {
entry:
  %this.addr = alloca ptr, align 8
  store ptr %this, ptr %this.addr, align 8
  %this1 = load ptr, ptr %this.addr, align 8
  %call = call noundef ptr @_ZNKSt12__shared_ptrIN4node17PerProcessOptionsELN9__gnu_cxx12_Lock_policyE2EE3getEv(ptr noundef nonnull align 8 dereferenceable(16) %this1) #3
  ret ptr %call
}

; Function Attrs: mustprogress nounwind uwtable
define internal noundef i32 @_ZN4node3sea12_GLOBAL__N_1anENS0_8SeaFlagsES2_(i32 noundef %x, i32 noundef %y) #4 {
entry:
  %x.addr = alloca i32, align 4
  %y.addr = alloca i32, align 4
  store i32 %x, ptr %x.addr, align 4
  store i32 %y, ptr %y.addr, align 4
  %0 = load i32, ptr %x.addr, align 4
  %1 = load i32, ptr %y.addr, align 4
  %and = and i32 %0, %1
  ret i32 %and
}

; Function Attrs: mustprogress nounwind uwtable
define dso_local void @_ZN4node3sea28FindSingleExecutableResourceEv(ptr noalias sret(%"struct.node::sea::SeaResource") align 8 %agg.result) #4 {
entry:
  %ref.tmp = alloca %class.anon, align 1
  %0 = load atomic i8, ptr @_ZGVZN4node3sea28FindSingleExecutableResourceEvE12sea_resource acquire, align 8
  %guard.uninitialized = icmp eq i8 %0, 0
  br i1 %guard.uninitialized, label %init.check, label %init.end, !prof !5

init.check:                                       ; preds = %entry
  %1 = call i32 @__cxa_guard_acquire(ptr @_ZGVZN4node3sea28FindSingleExecutableResourceEvE12sea_resource) #3
  %tobool = icmp ne i32 %1, 0
  br i1 %tobool, label %init, label %init.end

init:                                             ; preds = %init.check
  call void @"_ZZN4node3sea28FindSingleExecutableResourceEvENK3$_0clEv"(ptr sret(%"struct.node::sea::SeaResource") align 8 @_ZZN4node3sea28FindSingleExecutableResourceEvE12sea_resource, ptr noundef nonnull align 1 dereferenceable(1) %ref.tmp)
  call void @__cxa_guard_release(ptr @_ZGVZN4node3sea28FindSingleExecutableResourceEvE12sea_resource) #3
  br label %init.end

init.end:                                         ; preds = %init, %init.check, %entry
  call void @llvm.memcpy.p0.p0.i64(ptr align 8 %agg.result, ptr align 8 @_ZZN4node3sea28FindSingleExecutableResourceEvE12sea_resource, i64 64, i1 false)
  ret void
}

; Function Attrs: mustprogress nounwind uwtable
define dso_local noundef zeroext i1 @_ZN4node3sea18IsSingleExecutableEv() #4 {
entry:
  %call = call noundef zeroext i1 @_ZL21postject_has_resourcev()
  ret i1 %call
}

; Function Attrs: mustprogress nounwind uwtable
define linkonce_odr dso_local noundef ptr @_ZNKSt19__shared_ptr_accessIN4node17PerProcessOptionsELN9__gnu_cxx12_Lock_policyE2ELb0ELb0EEptEv(ptr noundef nonnull align 1 dereferenceable(1) %this) #4 comdat align 2 {
entry:
  %this.addr = alloca ptr, align 8
  store ptr %this, ptr %this.addr, align 8
  %this1 = load ptr, ptr %this.addr, align 8
  %call = call noundef ptr @_ZNKSt19__shared_ptr_accessIN4node17PerProcessOptionsELN9__gnu_cxx12_Lock_policyE2ELb0ELb0EE6_M_getEv(ptr noundef nonnull align 1 dereferenceable(1) %this1) #3
  ret ptr %call
}

; Function Attrs: mustprogress nounwind uwtable
define dso_local void @_ZN4node3sea30IsExperimentalSeaWarningNeededERKN2v820FunctionCallbackInfoINS1_5ValueEEE(ptr noundef nonnull align 8 dereferenceable(20) %args) #4 {
entry:
  %isolate.addr.i78 = alloca ptr, align 8
  %index.addr.i79 = alloca i32, align 4
  %addr.i80 = alloca i64, align 8
  %isolate.addr.i71 = alloca ptr, align 8
  %index.addr.i72 = alloca i32, align 4
  %addr.i73 = alloca i64, align 8
  %isolate.addr.i69 = alloca ptr, align 8
  %index.addr.i70 = alloca i32, align 4
  %addr.i = alloca i64, align 8
  %this.addr.i66 = alloca ptr, align 8
  %this.addr.i63 = alloca ptr, align 8
  %this.addr.i60 = alloca ptr, align 8
  %isolate.addr.i57 = alloca ptr, align 8
  %index.addr.i58 = alloca i32, align 4
  %isolate.addr.i54 = alloca ptr, align 8
  %index.addr.i55 = alloca i32, align 4
  %isolate.addr.i = alloca ptr, align 8
  %index.addr.i = alloca i32, align 4
  %this.addr.i50 = alloca ptr, align 8
  %slot.addr.i51 = alloca ptr, align 8
  %this.addr.i47 = alloca ptr, align 8
  %slot.addr.i48 = alloca ptr, align 8
  %this.addr.i45 = alloca ptr, align 8
  %slot.addr.i = alloca ptr, align 8
  %this.addr.i35 = alloca ptr, align 8
  %value.addr.i36 = alloca i8, align 1
  %root_index.i37 = alloca i32, align 4
  %this.addr.i25 = alloca ptr, align 8
  %value.addr.i26 = alloca i8, align 1
  %root_index.i27 = alloca i32, align 4
  %this.addr.i23 = alloca ptr, align 8
  %value.addr.i = alloca i8, align 1
  %root_index.i = alloca i32, align 4
  %retval.i19 = alloca %"class.v8::ReturnValue", align 8
  %this.addr.i20 = alloca ptr, align 8
  %retval.i15 = alloca %"class.v8::ReturnValue", align 8
  %this.addr.i16 = alloca ptr, align 8
  %retval.i = alloca %"class.v8::ReturnValue", align 8
  %this.addr.i = alloca ptr, align 8
  %args.addr = alloca ptr, align 8
  %is_building_sea = alloca i8, align 1
  %ref.tmp = alloca %"class.v8::ReturnValue", align 8
  %ref.tmp5 = alloca %"class.v8::ReturnValue", align 8
  %sea_resource = alloca %"struct.node::sea::SeaResource", align 8
  %ref.tmp9 = alloca %"class.v8::ReturnValue", align 8
  store ptr %args, ptr %args.addr, align 8
  %call = call noundef ptr @_ZNKSt19__shared_ptr_accessIN4node17PerProcessOptionsELN9__gnu_cxx12_Lock_policyE2ELb0ELb0EEptEv(ptr noundef nonnull align 1 dereferenceable(1) @_ZN4node11per_process11cli_optionsE) #3
  %experimental_sea_config = getelementptr inbounds %"class.node::PerProcessOptions", ptr %call, i32 0, i32 16
  %call1 = call noundef zeroext i1 @_ZNKSt7__cxx1112basic_stringIcSt11char_traitsIcESaIcEE5emptyEv(ptr noundef nonnull align 8 dereferenceable(32) %experimental_sea_config) #3
  %lnot = xor i1 %call1, true
  %frombool = zext i1 %lnot to i8
  store i8 %frombool, ptr %is_building_sea, align 1
  %0 = load i8, ptr %is_building_sea, align 1
  %tobool = trunc i8 %0 to i1
  br i1 %tobool, label %if.then, label %if.end

if.then:                                          ; preds = %entry
  %1 = load ptr, ptr %args.addr, align 8
  store ptr %1, ptr %this.addr.i20, align 8
  %this1.i21 = load ptr, ptr %this.addr.i20, align 8
  %2 = load ptr, ptr %this1.i21, align 8
  %arrayidx.i22 = getelementptr inbounds i64, ptr %2, i64 3
  store ptr %retval.i19, ptr %this.addr.i45, align 8
  store ptr %arrayidx.i22, ptr %slot.addr.i, align 8
  %this1.i46 = load ptr, ptr %this.addr.i45, align 8
  %3 = load ptr, ptr %slot.addr.i, align 8
  store ptr %3, ptr %this1.i46, align 8
  %4 = load ptr, ptr %retval.i19, align 8
  %coerce.dive = getelementptr inbounds %"class.v8::ReturnValue", ptr %ref.tmp, i32 0, i32 0
  store ptr %4, ptr %coerce.dive, align 8
  store ptr %ref.tmp, ptr %this.addr.i35, align 8
  store i8 1, ptr %value.addr.i36, align 1
  %this1.i38 = load ptr, ptr %this.addr.i35, align 8
  %5 = load i8, ptr %value.addr.i36, align 1
  %tobool.i39 = trunc i8 %5 to i1
  br i1 %tobool.i39, label %if.then.i43, label %if.else.i40

if.then.i43:                                      ; preds = %if.then
  store i32 7, ptr %root_index.i37, align 4
  br label %_ZN2v811ReturnValueINS_5ValueEE3SetEb.exit44

if.else.i40:                                      ; preds = %if.then
  store i32 8, ptr %root_index.i37, align 4
  br label %_ZN2v811ReturnValueINS_5ValueEE3SetEb.exit44

_ZN2v811ReturnValueINS_5ValueEE3SetEb.exit44:     ; preds = %if.else.i40, %if.then.i43
  store ptr %this1.i38, ptr %this.addr.i60, align 8
  %this1.i61 = load ptr, ptr %this.addr.i60, align 8
  %6 = load ptr, ptr %this1.i61, align 8
  %arrayidx.i62 = getelementptr inbounds i64, ptr %6, i64 -2
  %7 = load ptr, ptr %arrayidx.i62, align 8
  %8 = load i32, ptr %root_index.i37, align 4
  store ptr %7, ptr %isolate.addr.i, align 8
  store i32 %8, ptr %index.addr.i, align 4
  %9 = load ptr, ptr %isolate.addr.i, align 8
  %10 = load i32, ptr %index.addr.i, align 4
  store ptr %9, ptr %isolate.addr.i78, align 8
  store i32 %10, ptr %index.addr.i79, align 4
  %11 = load ptr, ptr %isolate.addr.i78, align 8
  %12 = ptrtoint ptr %11 to i64
  %add.i81 = add i64 %12, 576
  %13 = load i32, ptr %index.addr.i79, align 4
  %mul.i82 = mul nsw i32 %13, 8
  %conv.i83 = sext i32 %mul.i82 to i64
  %add1.i84 = add i64 %add.i81, %conv.i83
  store i64 %add1.i84, ptr %addr.i80, align 8
  %14 = load i64, ptr %addr.i80, align 8
  %15 = inttoptr i64 %14 to ptr
  %16 = load i64, ptr %15, align 8
  %17 = load ptr, ptr %this1.i38, align 8
  store i64 %16, ptr %17, align 8
  br label %return

if.end:                                           ; preds = %entry
  %call3 = call noundef zeroext i1 @_ZN4node3sea18IsSingleExecutableEv()
  br i1 %call3, label %if.end8, label %if.then4

if.then4:                                         ; preds = %if.end
  %18 = load ptr, ptr %args.addr, align 8
  store ptr %18, ptr %this.addr.i16, align 8
  %this1.i17 = load ptr, ptr %this.addr.i16, align 8
  %19 = load ptr, ptr %this1.i17, align 8
  %arrayidx.i18 = getelementptr inbounds i64, ptr %19, i64 3
  store ptr %retval.i15, ptr %this.addr.i47, align 8
  store ptr %arrayidx.i18, ptr %slot.addr.i48, align 8
  %this1.i49 = load ptr, ptr %this.addr.i47, align 8
  %20 = load ptr, ptr %slot.addr.i48, align 8
  store ptr %20, ptr %this1.i49, align 8
  %21 = load ptr, ptr %retval.i15, align 8
  %coerce.dive7 = getelementptr inbounds %"class.v8::ReturnValue", ptr %ref.tmp5, i32 0, i32 0
  store ptr %21, ptr %coerce.dive7, align 8
  store ptr %ref.tmp5, ptr %this.addr.i25, align 8
  store i8 0, ptr %value.addr.i26, align 1
  %this1.i28 = load ptr, ptr %this.addr.i25, align 8
  %22 = load i8, ptr %value.addr.i26, align 1
  %tobool.i29 = trunc i8 %22 to i1
  br i1 %tobool.i29, label %if.then.i33, label %if.else.i30

if.then.i33:                                      ; preds = %if.then4
  store i32 7, ptr %root_index.i27, align 4
  br label %_ZN2v811ReturnValueINS_5ValueEE3SetEb.exit34

if.else.i30:                                      ; preds = %if.then4
  store i32 8, ptr %root_index.i27, align 4
  br label %_ZN2v811ReturnValueINS_5ValueEE3SetEb.exit34

_ZN2v811ReturnValueINS_5ValueEE3SetEb.exit34:     ; preds = %if.else.i30, %if.then.i33
  store ptr %this1.i28, ptr %this.addr.i63, align 8
  %this1.i64 = load ptr, ptr %this.addr.i63, align 8
  %23 = load ptr, ptr %this1.i64, align 8
  %arrayidx.i65 = getelementptr inbounds i64, ptr %23, i64 -2
  %24 = load ptr, ptr %arrayidx.i65, align 8
  %25 = load i32, ptr %root_index.i27, align 4
  store ptr %24, ptr %isolate.addr.i54, align 8
  store i32 %25, ptr %index.addr.i55, align 4
  %26 = load ptr, ptr %isolate.addr.i54, align 8
  %27 = load i32, ptr %index.addr.i55, align 4
  store ptr %26, ptr %isolate.addr.i71, align 8
  store i32 %27, ptr %index.addr.i72, align 4
  %28 = load ptr, ptr %isolate.addr.i71, align 8
  %29 = ptrtoint ptr %28 to i64
  %add.i74 = add i64 %29, 576
  %30 = load i32, ptr %index.addr.i72, align 4
  %mul.i75 = mul nsw i32 %30, 8
  %conv.i76 = sext i32 %mul.i75 to i64
  %add1.i77 = add i64 %add.i74, %conv.i76
  store i64 %add1.i77, ptr %addr.i73, align 8
  %31 = load i64, ptr %addr.i73, align 8
  %32 = inttoptr i64 %31 to ptr
  %33 = load i64, ptr %32, align 8
  %34 = load ptr, ptr %this1.i28, align 8
  store i64 %33, ptr %34, align 8
  br label %return

if.end8:                                          ; preds = %if.end
  call void @_ZN4node3sea28FindSingleExecutableResourceEv(ptr sret(%"struct.node::sea::SeaResource") align 8 %sea_resource)
  %35 = load ptr, ptr %args.addr, align 8
  store ptr %35, ptr %this.addr.i, align 8
  %this1.i = load ptr, ptr %this.addr.i, align 8
  %36 = load ptr, ptr %this1.i, align 8
  %arrayidx.i = getelementptr inbounds i64, ptr %36, i64 3
  store ptr %retval.i, ptr %this.addr.i50, align 8
  store ptr %arrayidx.i, ptr %slot.addr.i51, align 8
  %this1.i52 = load ptr, ptr %this.addr.i50, align 8
  %37 = load ptr, ptr %slot.addr.i51, align 8
  store ptr %37, ptr %this1.i52, align 8
  %38 = load ptr, ptr %retval.i, align 8
  %coerce.dive11 = getelementptr inbounds %"class.v8::ReturnValue", ptr %ref.tmp9, i32 0, i32 0
  store ptr %38, ptr %coerce.dive11, align 8
  %flags = getelementptr inbounds %"struct.node::sea::SeaResource", ptr %sea_resource, i32 0, i32 0
  %39 = load i32, ptr %flags, align 8
  %call12 = call noundef i32 @_ZN4node3sea12_GLOBAL__N_1anENS0_8SeaFlagsES2_(i32 noundef %39, i32 noundef 1)
  %tobool13 = icmp ne i32 %call12, 0
  %lnot14 = xor i1 %tobool13, true
  store ptr %ref.tmp9, ptr %this.addr.i23, align 8
  %frombool.i = zext i1 %lnot14 to i8
  store i8 %frombool.i, ptr %value.addr.i, align 1
  %this1.i24 = load ptr, ptr %this.addr.i23, align 8
  %40 = load i8, ptr %value.addr.i, align 1
  %tobool.i = trunc i8 %40 to i1
  br i1 %tobool.i, label %if.then.i, label %if.else.i

if.then.i:                                        ; preds = %if.end8
  store i32 7, ptr %root_index.i, align 4
  br label %_ZN2v811ReturnValueINS_5ValueEE3SetEb.exit

if.else.i:                                        ; preds = %if.end8
  store i32 8, ptr %root_index.i, align 4
  br label %_ZN2v811ReturnValueINS_5ValueEE3SetEb.exit

_ZN2v811ReturnValueINS_5ValueEE3SetEb.exit:       ; preds = %if.else.i, %if.then.i
  store ptr %this1.i24, ptr %this.addr.i66, align 8
  %this1.i67 = load ptr, ptr %this.addr.i66, align 8
  %41 = load ptr, ptr %this1.i67, align 8
  %arrayidx.i68 = getelementptr inbounds i64, ptr %41, i64 -2
  %42 = load ptr, ptr %arrayidx.i68, align 8
  %43 = load i32, ptr %root_index.i, align 4
  store ptr %42, ptr %isolate.addr.i57, align 8
  store i32 %43, ptr %index.addr.i58, align 4
  %44 = load ptr, ptr %isolate.addr.i57, align 8
  %45 = load i32, ptr %index.addr.i58, align 4
  store ptr %44, ptr %isolate.addr.i69, align 8
  store i32 %45, ptr %index.addr.i70, align 4
  %46 = load ptr, ptr %isolate.addr.i69, align 8
  %47 = ptrtoint ptr %46 to i64
  %add.i = add i64 %47, 576
  %48 = load i32, ptr %index.addr.i70, align 4
  %mul.i = mul nsw i32 %48, 8
  %conv.i = sext i32 %mul.i to i64
  %add1.i = add i64 %add.i, %conv.i
  store i64 %add1.i, ptr %addr.i, align 8
  %49 = load i64, ptr %addr.i, align 8
  %50 = inttoptr i64 %49 to ptr
  %51 = load i64, ptr %50, align 8
  %52 = load ptr, ptr %this1.i24, align 8
  store i64 %51, ptr %52, align 8
  br label %return

return:                                           ; preds = %_ZN2v811ReturnValueINS_5ValueEE3SetEb.exit, %_ZN2v811ReturnValueINS_5ValueEE3SetEb.exit34, %_ZN2v811ReturnValueINS_5ValueEE3SetEb.exit44
  ret void
}