; Function Attrs: mustprogress nounwind uwtable
define dso_local void @_ZN4node3sea30IsExperimentalSeaWarningNeededERKN2v820FunctionCallbackInfoINS1_5ValueEEE(ptr nocapture noundef nonnull readonly align 8 dereferenceable(20) %args) #4 {
entry:
  %0 = load ptr, ptr @_ZN4node11per_process11cli_optionsE, align 8
  %experimental_sea_config = getelementptr inbounds i8, ptr %0, i64 240
  %call1 = tail call noundef zeroext i1 @_ZNKSt7__cxx1112basic_stringIcSt11char_traitsIcESaIcEE5emptyEv(ptr noundef nonnull align 8 dereferenceable(32) %experimental_sea_config) #23
  br i1 %call1, label %if.end, label %if.then

if.then:                                          ; preds = %entry
  %1 = load ptr, ptr %args, align 8
  %arrayidx.i22 = getelementptr inbounds i8, ptr %1, i64 24
  %arrayidx.i62 = getelementptr inbounds i8, ptr %1, i64 8
  %2 = load ptr, ptr %arrayidx.i62, align 8
  %3 = ptrtoint ptr %2 to i64
  %add1.i84 = add i64 %3, 632
  br label %return

if.end:                                           ; preds = %entry
  %4 = load volatile i8, ptr getelementptr inbounds ([49 x i8], ptr @.str.56, i64 0, i64 47), align 1
  %cmp.i.i = icmp eq i8 %4, 49
  br i1 %cmp.i.i, label %if.end8, label %if.then4

if.then4:                                         ; preds = %if.end
  %5 = load ptr, ptr %args, align 8
  %arrayidx.i18 = getelementptr inbounds i8, ptr %5, i64 24
  %arrayidx.i65 = getelementptr inbounds i8, ptr %5, i64 8
  %6 = load ptr, ptr %arrayidx.i65, align 8
  %7 = ptrtoint ptr %6 to i64
  %add1.i77 = add i64 %7, 640
  br label %return

if.end8:                                          ; preds = %if.end
  %8 = load atomic i8, ptr @_ZGVZN4node3sea28FindSingleExecutableResourceEvE12sea_resource acquire, align 8, !noalias !6
  %guard.uninitialized.i = icmp eq i8 %8, 0
  br i1 %guard.uninitialized.i, label %init.check.i, label %_ZN4node3sea28FindSingleExecutableResourceEv.exit, !prof !5

init.check.i:                                     ; preds = %if.end8
  %9 = tail call i32 @__cxa_guard_acquire(ptr nonnull @_ZGVZN4node3sea28FindSingleExecutableResourceEvE12sea_resource) #23, !noalias !6
  %tobool.not.i = icmp eq i32 %9, 0
  br i1 %tobool.not.i, label %_ZN4node3sea28FindSingleExecutableResourceEv.exit, label %init.i

init.i:                                           ; preds = %init.check.i
  tail call fastcc void @"_ZZN4node3sea28FindSingleExecutableResourceEvENK3$_0clEv"(), !noalias !6
  tail call void @__cxa_guard_release(ptr nonnull @_ZGVZN4node3sea28FindSingleExecutableResourceEvE12sea_resource) #23, !noalias !6
  br label %_ZN4node3sea28FindSingleExecutableResourceEv.exit

_ZN4node3sea28FindSingleExecutableResourceEv.exit: ; preds = %if.end8, %init.check.i, %init.i
  %sea_resource.sroa.0.0.copyload = load i32, ptr @_ZZN4node3sea28FindSingleExecutableResourceEvE12sea_resource, align 8
  %10 = load ptr, ptr %args, align 8
  %arrayidx.i = getelementptr inbounds i8, ptr %10, i64 24
  %and.i = and i32 %sea_resource.sroa.0.0.copyload, 1
  %tobool13.not = icmp eq i32 %and.i, 0
  %. = select i1 %tobool13.not, i64 56, i64 64
  %arrayidx.i68 = getelementptr inbounds i8, ptr %10, i64 8
  %11 = load ptr, ptr %arrayidx.i68, align 8
  %12 = ptrtoint ptr %11 to i64
  %add.i = add i64 %12, 576
  %add1.i = add i64 %add.i, %.
  br label %return

return:                                           ; preds = %_ZN4node3sea28FindSingleExecutableResourceEv.exit, %if.then4, %if.then
  %add1.i.sink = phi i64 [ %add1.i, %_ZN4node3sea28FindSingleExecutableResourceEv.exit ], [ %add1.i77, %if.then4 ], [ %add1.i84, %if.then ]
  %arrayidx.i.sink = phi ptr [ %arrayidx.i, %_ZN4node3sea28FindSingleExecutableResourceEv.exit ], [ %arrayidx.i18, %if.then4 ], [ %arrayidx.i22, %if.then ]
  %13 = inttoptr i64 %add1.i.sink to ptr
  %14 = load i64, ptr %13, align 8
  store i64 %14, ptr %arrayidx.i.sink, align 8
  ret void
}